target datalayout = "e-m:e-p270:32:32-p271:32:32-p272:64:64-i64:64-i128:128-f80:128-n8:16:32:64-S128"
target triple = "x86_64-unknown-linux-gnu"

%"struct.node::sea::SeaResource" = type { i32, %"class.std::basic_string_view", %"class.std::basic_string_view", %"class.std::optional" }
%"class.std::basic_string_view" = type { i64, ptr }
%"class.std::optional" = type { %"struct.std::_Optional_base" }
%"struct.std::_Optional_base" = type { %"struct.std::_Optional_payload" }
%"struct.std::_Optional_payload" = type { %"struct.std::_Optional_payload_base.base", [7 x i8] }
%"struct.std::_Optional_payload_base.base" = type <{ %"union.std::_Optional_payload_base<std::basic_string_view<char>>::_Storage", i8 }>
%"union.std::_Optional_payload_base<std::basic_string_view<char>>::_Storage" = type { %"class.std::basic_string_view" }
%class.anon = type { i8 }

@_ZZN4node3sea28FindSingleExecutableResourceEvE12sea_resource = internal global %"struct.node::sea::SeaResource" zeroinitializer, align 8
@_ZGVZN4node3sea28FindSingleExecutableResourceEvE12sea_resource = internal global i64 0, align 8

; Function Attrs: mustprogress nounwind uwtable
define dso_local void @_ZN4node3sea28FindSingleExecutableResourceEv(ptr noalias sret(%"struct.node::sea::SeaResource") align 8 %agg.result) #4 {
entry:
  %ref.tmp = alloca %class.anon, align 1
  %0 = load atomic i8, ptr @_ZGVZN4node3sea28FindSingleExecutableResourceEvE12sea_resource acquire, align 8
  %guard.uninitialized = icmp eq i8 %0, 0
  br i1 %guard.uninitialized, label %init.check, label %init.end, !prof !5

init.check:                                       ; preds = %entry
  %1 = call i32 @__cxa_guard_acquire(ptr @_ZGVZN4node3sea28FindSingleExecutableResourceEvE12sea_resource) #3
  %tobool = icmp ne i32 %1, 0
  br i1 %tobool, label %init, label %init.end

init:                                             ; preds = %init.check
  call void @"_ZZN4node3sea28FindSingleExecutableResourceEvENK3$_0clEv"(ptr sret(%"struct.node::sea::SeaResource") align 8 @_ZZN4node3sea28FindSingleExecutableResourceEvE12sea_resource, ptr noundef nonnull align 1 dereferenceable(1) %ref.tmp)
  call void @__cxa_guard_release(ptr @_ZGVZN4node3sea28FindSingleExecutableResourceEvE12sea_resource) #3
  br label %init.end

init.end:                                         ; preds = %init, %init.check, %entry
  call void @llvm.memcpy.p0.p0.i64(ptr align 8 %agg.result, ptr align 8 @_ZZN4node3sea28FindSingleExecutableResourceEvE12sea_resource, i64 64, i1 false)
  ret void
}