; Function Attrs: mustprogress nounwind uwtable
define dso_local void @_ZN4node3sea28FindSingleExecutableResourceEv(ptr noalias nocapture writeonly sret(%"struct.node::sea::SeaResource") align 8 %agg.result) local_unnamed_addr #4 {
entry:
  %0 = load atomic i8, ptr @_ZGVZN4node3sea28FindSingleExecutableResourceEvE12sea_resource acquire, align 8
  %guard.uninitialized = icmp eq i8 %0, 0
  br i1 %guard.uninitialized, label %init.check, label %init.end, !prof !5

init.check:                                       ; preds = %entry
  %1 = tail call i32 @__cxa_guard_acquire(ptr nonnull @_ZGVZN4node3sea28FindSingleExecutableResourceEvE12sea_resource) #23
  %tobool.not = icmp eq i32 %1, 0
  br i1 %tobool.not, label %init.end, label %init

init:                                             ; preds = %init.check
  tail call fastcc void @"_ZZN4node3sea28FindSingleExecutableResourceEvENK3$_0clEv"()
  tail call void @__cxa_guard_release(ptr nonnull @_ZGVZN4node3sea28FindSingleExecutableResourceEvE12sea_resource) #23
  br label %init.end

init.end:                                         ; preds = %init, %init.check, %entry
  tail call void @llvm.memcpy.p0.p0.i64(ptr noundef nonnull align 8 dereferenceable(64) %agg.result, ptr noundef nonnull align 8 dereferenceable(64) @_ZZN4node3sea28FindSingleExecutableResourceEvE12sea_resource, i64 64, i1 false)
  ret void
}